Certificate:
    Data:
        Version: 1 (0x0)
        Serial Number: 1048593 (0x100011)
    Signature Algorithm: sha1WithRSAEncryption
        Issuer: C=BE, ST=Antwerp, L=Mechelen, O=In Serf we trust, Inc., OU=Test Suite CA, CN=Serf CA/emailAddress=serfca@example.com
        Validity
            Not Before: Apr 18 19:50:11 2013 GMT
            Not After : Apr 18 19:50:11 2014 GMT
        Subject: C=BE, ST=Antwerp, L=Mechelen, O=In Serf we trust, Inc., OU=Test Suite Server, CN=Serf Server/emailAddress=serfserver@example.com
        Subject Public Key Info:
            Public Key Algorithm: rsaEncryption
                Public-Key: (1024 bit)
                Modulus:
                    00:ea:92:6f:ab:ed:ce:e1:c3:a8:2e:3e:03:9e:a0:
                    d8:c0:e4:df:e3:58:1f:bf:eb:18:23:c8:ca:a5:9a:
                    f0:f2:b5:97:ce:df:47:15:9a:0e:96:41:cc:b9:92:
                    66:0c:f0:11:f7:f1:8f:3c:29:48:31:4a:1d:93:db:
                    0a:f0:e9:98:5f:98:ed:07:1c:4e:2e:9f:e3:f3:3f:
                    2c:2f:20:d8:f1:5e:8a:8f:3a:aa:3e:9c:f5:99:07:
                    8c:a6:e9:9c:df:03:59:c1:ff:37:5a:bf:69:e8:41:
                    bd:c0:28:66:c4:4b:0a:ab:dd:93:a1:8f:3e:5e:34:
                    5c:e6:04:6c:1d:8b:a3:88:6b
                Exponent: 65537 (0x10001)
    Signature Algorithm: sha1WithRSAEncryption
         19:2f:4f:a7:a4:ea:b4:31:94:0b:9c:e8:9e:47:59:bd:2c:87:
         7d:70:c3:28:72:1d:79:36:69:9f:fa:d7:58:6c:d6:6b:68:c0:
         be:99:ff:55:09:82:7e:c6:25:bb:35:6c:2c:7f:5c:89:f9:8e:
         d8:cf:45:1e:93:a3:b5:6c:d7:93:9c:d6:53:5a:fb:3d:08:d6:
         21:d0:dc:f2:66:ed:e2:56:2c:bd:63:e1:57:f3:04:1f:e3:96:
         d8:16:5c:44:ac:3c:13:98:cb:21:02:bf:23:67:0c:c1:4a:df:
         b0:c8:d9:16:cf:b4:a7:c0:3a:6d:cb:d8:1e:ce:fe:c9:1c:00:
         68:e4
-----BEGIN CERTIFICATE-----
MIICvzCCAigCAxAAETANBgkqhkiG9w0BAQUFADCBoDELMAkGA1UEBhMCQkUxEDAO
BgNVBAgMB0FudHdlcnAxETAPBgNVBAcMCE1lY2hlbGVuMR8wHQYDVQQKDBZJbiBT
ZXJmIHdlIHRydXN0LCBJbmMuMRYwFAYDVQQLDA1UZXN0IFN1aXRlIENBMRAwDgYD
VQQDDAdTZXJmIENBMSEwHwYJKoZIhvcNAQkBFhJzZXJmY2FAZXhhbXBsZS5jb20w
HhcNMTMwNDE4MTk1MDExWhcNMTQwNDE4MTk1MDExWjCBrDELMAkGA1UEBhMCQkUx
EDAOBgNVBAgMB0FudHdlcnAxETAPBgNVBAcMCE1lY2hlbGVuMR8wHQYDVQQKDBZJ
biBTZXJmIHdlIHRydXN0LCBJbmMuMRowGAYDVQQLDBFUZXN0IFN1aXRlIFNlcnZl
cjEUMBIGA1UEAwwLU2VyZiBTZXJ2ZXIxJTAjBgkqhkiG9w0BCQEWFnNlcmZzZXJ2
ZXJAZXhhbXBsZS5jb20wgZ8wDQYJKoZIhvcNAQEBBQADgY0AMIGJAoGBAOqSb6vt
zuHDqC4+A56g2MDk3+NYH7/rGCPIyqWa8PK1l87fRxWaDpZBzLmSZgzwEffxjzwp
SDFKHZPbCvDpmF+Y7QccTi6f4/M/LC8g2PFeio86qj6c9ZkHjKbpnN8DWcH/N1q/
aehBvcAoZsRLCqvdk6GPPl40XOYEbB2Lo4hrAgMBAAEwDQYJKoZIhvcNAQEFBQAD
gYEAGS9Pp6TqtDGUC5zonkdZvSyHfXDDKHIdeTZpn/rXWGzWa2jAvpn/VQmCfsYl
uzVsLH9cifmO2M9FHpOjtWzXk5zWU1r7PQjWIdDc8mbt4lYsvWPhV/MEH+OW2BZc
RKw8E5jLIQK/I2cMwUrfsMjZFs+0p8A6bcvYHs7+yRwAaOQ=
-----END CERTIFICATE-----
================================================================
Certificate:
    Data:
        Version: 3 (0x2)
        Serial Number: 14060582211199810902 (0xc321390661bdbd56)
    Signature Algorithm: sha1WithRSAEncryption
        Issuer: C=BE, ST=Antwerp, L=Mechelen, O=In Serf we trust, Inc., OU=Test Suite Root CA, CN=Serf Root CA/emailAddress=serfrootca@example.com
        Validity
            Not Before: Apr 13 11:19:14 2013 GMT
            Not After : Apr 11 11:19:14 2023 GMT
        Subject: C=BE, ST=Antwerp, L=Mechelen, O=In Serf we trust, Inc., OU=Test Suite Root CA, CN=Serf Root CA/emailAddress=serfrootca@example.com
        Subject Public Key Info:
            Public Key Algorithm: rsaEncryption
                Public-Key: (1024 bit)
                Modulus:
                    00:e1:dd:69:ea:ac:fd:f2:73:81:ec:ed:b6:b1:0e:
                    70:23:8c:01:6d:ab:f3:43:ab:0f:fc:8a:6a:23:eb:
                    6c:48:37:c9:c0:8f:29:61:00:7e:89:1f:00:d1:68:
                    dd:70:de:bd:34:32:0e:41:ac:f9:ea:c1:a6:0d:b5:
                    65:be:5c:9e:f1:b4:27:54:c1:79:61:63:d4:2d:06:
                    11:5f:cc:4c:d9:d3:ef:4e:da:9f:a4:26:16:cb:3f:
                    86:f8:21:7d:c5:3a:32:34:c8:cb:85:ad:c4:3f:e4:
                    b3:ad:8e:a7:67:9e:0c:3b:5a:58:29:5f:ce:96:3b:
                    e3:f5:ca:42:eb:7b:44:d5:75
                Exponent: 65537 (0x10001)
        X509v3 extensions:
            X509v3 Subject Key Identifier: 
                B2:3E:19:35:C1:C4:4F:23:79:ED:BF:E8:DC:5C:31:03:F0:2F:15:77
            X509v3 Authority Key Identifier: 
                keyid:B2:3E:19:35:C1:C4:4F:23:79:ED:BF:E8:DC:5C:31:03:F0:2F:15:77

            X509v3 Basic Constraints: 
                CA:TRUE
    Signature Algorithm: sha1WithRSAEncryption
         c3:ec:1f:3e:b1:87:d0:80:10:f9:bf:73:1b:38:d4:b1:b7:80:
         4d:ea:20:c1:79:7d:f5:58:42:11:13:28:ab:b1:b4:0a:88:9c:
         20:4d:9c:b5:5a:41:28:5e:f6:69:5e:55:bb:e2:1a:b9:c6:62:
         38:86:32:7b:93:28:ca:9e:af:d1:06:f9:93:c2:5d:92:c0:25:
         68:6a:e1:fe:85:2a:19:a7:6b:17:4d:23:9a:72:d6:d0:c1:80:
         ff:74:10:8b:62:7a:11:c3:9a:87:2a:e4:7d:d1:8c:72:a6:bf:
         c1:3b:d8:b8:33:c0:ff:b0:f7:d6:0e:a3:dd:36:fe:8a:41:a0:
         98:cc
-----BEGIN CERTIFICATE-----
MIIDLDCCApWgAwIBAgIJAMMhOQZhvb1WMA0GCSqGSIb3DQEBBQUAMIGuMQswCQYD
VQQGEwJCRTEQMA4GA1UECAwHQW50d2VycDERMA8GA1UEBwwITWVjaGVsZW4xHzAd
BgNVBAoMFkluIFNlcmYgd2UgdHJ1c3QsIEluYy4xGzAZBgNVBAsMElRlc3QgU3Vp
dGUgUm9vdCBDQTEVMBMGA1UEAwwMU2VyZiBSb290IENBMSUwIwYJKoZIhvcNAQkB
FhZzZXJmcm9vdGNhQGV4YW1wbGUuY29tMB4XDTEzMDQxMzExMTkxNFoXDTIzMDQx
MTExMTkxNFowga4xCzAJBgNVBAYTAkJFMRAwDgYDVQQIDAdBbnR3ZXJwMREwDwYD
VQQHDAhNZWNoZWxlbjEfMB0GA1UECgwWSW4gU2VyZiB3ZSB0cnVzdCwgSW5jLjEb
MBkGA1UECwwSVGVzdCBTdWl0ZSBSb290IENBMRUwEwYDVQQDDAxTZXJmIFJvb3Qg
Q0ExJTAjBgkqhkiG9w0BCQEWFnNlcmZyb290Y2FAZXhhbXBsZS5jb20wgZ8wDQYJ
KoZIhvcNAQEBBQADgY0AMIGJAoGBAOHdaeqs/fJzgezttrEOcCOMAW2r80OrD/yK
aiPrbEg3ycCPKWEAfokfANFo3XDevTQyDkGs+erBpg21Zb5cnvG0J1TBeWFj1C0G
EV/MTNnT707an6QmFss/hvghfcU6MjTIy4WtxD/ks62Op2eeDDtaWClfzpY74/XK
Qut7RNV1AgMBAAGjUDBOMB0GA1UdDgQWBBSyPhk1wcRPI3ntv+jcXDED8C8VdzAf
BgNVHSMEGDAWgBSyPhk1wcRPI3ntv+jcXDED8C8VdzAMBgNVHRMEBTADAQH/MA0G
CSqGSIb3DQEBBQUAA4GBAMPsHz6xh9CAEPm/cxs41LG3gE3qIMF5ffVYQhETKKux
tAqInCBNnLVaQShe9mleVbviGrnGYjiGMnuTKMqer9EG+ZPCXZLAJWhq4f6FKhmn
axdNI5py1tDBgP90EItiehHDmocq5H3RjHKmv8E72LgzwP+w99YOo902/opBoJjM
-----END CERTIFICATE-----
================================================================
Certificate:
    Data:
        Version: 3 (0x2)
        Serial Number:
            58:0b:05:6c:53:24:db:b2:50:57:18:5f:f9:e5:a6:50
    Signature Algorithm: sha1WithRSAEncryption
        Issuer: C=BE, CN=Belgium Root CA
        Validity
            Not Before: Jan 26 23:00:00 2003 GMT
            Not After : Jan 26 23:00:00 2014 GMT
        Subject: C=BE, CN=Belgium Root CA
        Subject Public Key Info:
            Public Key Algorithm: rsaEncryption
                Public-Key: (2048 bit)
                Modulus:
                    00:c8:a1:71:e9:1c:46:42:79:78:71:6f:9d:ae:a9:
                    a8:ab:28:b7:4d:c7:20:eb:30:91:5a:75:f5:e2:d2:
                    cf:c8:4c:14:98:42:58:ad:c7:11:c5:40:40:6a:5a:
                    f9:74:12:27:87:e9:9c:e5:71:4e:22:2c:d1:12:18:
                    aa:30:5e:a2:21:b9:d9:bb:ff:f6:74:eb:31:01:e7:
                    3b:7e:58:0f:91:16:4d:76:89:a8:01:4f:ad:22:66:
                    70:fa:4b:1d:95:c1:30:58:ea:bc:d9:65:d8:9a:b4:
                    88:eb:49:46:52:df:d2:53:15:76:cb:14:5d:19:49:
                    b1:6f:6a:d3:d3:fd:bc:c2:2d:ec:45:3f:09:3f:58:
                    be:fc:d4:ef:00:8c:81:35:72:bf:f7:18:ea:96:62:
                    7d:2b:28:7f:15:6c:63:d2:ca:ca:7d:05:ac:c8:6d:
                    07:6d:32:be:68:b8:05:40:ae:54:98:56:3e:66:f1:
                    30:e8:ef:c4:ab:93:5e:07:de:32:8f:12:74:aa:5b:
                    34:23:54:c0:ea:6c:ce:fe:36:92:a8:09:17:ea:a1:
                    2d:cf:6c:e3:84:1d:de:87:2e:33:0b:3c:74:e2:21:
                    50:38:95:2e:5c:e0:e5:c6:31:f9:db:40:fa:6a:a1:
                    a4:8a:93:9b:a7:21:06:87:1d:27:d3:c4:a1:c9:4c:
                    b0:6f
                Exponent: 65537 (0x10001)
        X509v3 extensions:
            X509v3 Key Usage: critical
                Certificate Sign, CRL Sign
            X509v3 Basic Constraints: critical
                CA:TRUE
            X509v3 Certificate Policies: 
                Policy: 2.16.56.1.1.1
                  CPS: http://repository.eid.belgium.be

            X509v3 Subject Key Identifier: 
                10:F0:0C:56:9B:61:EA:57:3A:B6:35:97:6D:9F:DD:B9:14:8E:DB:E6
            Netscape Cert Type: 
                SSL CA, S/MIME CA, Object Signing CA
            X509v3 Authority Key Identifier: 
                keyid:10:F0:0C:56:9B:61:EA:57:3A:B6:35:97:6D:9F:DD:B9:14:8E:DB:E6

    Signature Algorithm: sha1WithRSAEncryption
         c8:6d:22:51:8a:61:f8:0f:96:6e:d5:20:b2:81:f8:c6:dc:a3:
         16:00:da:cd:6a:e7:6b:2a:fa:59:48:a7:4c:49:37:d7:73:a1:
         6a:01:65:5e:32:bd:e7:97:d3:d0:2e:3c:73:d3:8c:7b:83:ef:
         d6:42:c1:3f:a8:a9:5d:0f:37:ba:76:d2:40:bd:cc:2d:3f:d3:
         44:41:49:9c:fd:5b:29:f4:02:23:22:5b:71:1b:bf:58:d9:28:
         4e:2d:45:f4:da:e7:b5:63:45:44:11:0d:2a:7f:33:7f:36:49:
         b4:ce:6e:a9:02:31:ae:5c:fd:c8:89:bf:42:7b:d7:f1:60:f2:
         d7:87:f6:57:2e:7a:7e:6a:13:80:1d:dc:e3:d0:63:1e:3d:71:
         31:b1:60:d4:9e:08:ca:ab:f0:94:c7:48:75:54:81:f3:1b:ad:
         77:9c:e8:b2:8f:db:83:ac:8f:34:6b:e8:bf:c3:d9:f5:43:c3:
         64:55:eb:1a:bd:36:86:36:ba:21:8c:97:1a:21:d4:ea:2d:3b:
         ac:ba:ec:a7:1d:ab:be:b9:4a:9b:35:2f:1c:5c:1d:51:a7:1f:
         54:ed:12:97:ff:f2:6e:87:7d:46:c9:74:d6:ef:eb:3d:7d:e6:
         59:6e:06:94:04:e4:a2:55:87:38:28:6a:22:5e:e2:be:74:12:
         b0:04:43:2a
-----BEGIN CERTIFICATE-----
MIIDlDCCAnygAwIBAgIQWAsFbFMk27JQVxhf+eWmUDANBgkqhkiG9w0BAQUFADAn
MQswCQYDVQQGEwJCRTEYMBYGA1UEAxMPQmVsZ2l1bSBSb290IENBMB4XDTAzMDEy
NjIzMDAwMFoXDTE0MDEyNjIzMDAwMFowJzELMAkGA1UEBhMCQkUxGDAWBgNVBAMT
D0JlbGdpdW0gUm9vdCBDQTCCASIwDQYJKoZIhvcNAQEBBQADggEPADCCAQoCggEB
AMihcekcRkJ5eHFvna6pqKsot03HIOswkVp19eLSz8hMFJhCWK3HEcVAQGpa+XQS
J4fpnOVxTiIs0RIYqjBeoiG52bv/9nTrMQHnO35YD5EWTXaJqAFPrSJmcPpLHZXB
MFjqvNll2Jq0iOtJRlLf0lMVdssUXRlJsW9q09P9vMIt7EU/CT9YvvzU7wCMgTVy
v/cY6pZifSsofxVsY9LKyn0FrMhtB20yvmi4BUCuVJhWPmbxMOjvxKuTXgfeMo8S
dKpbNCNUwOpszv42kqgJF+qhLc9s44Qd3ocuMws8dOIhUDiVLlzg5cYx+dtA+mqh
pIqTm6chBocdJ9PEoclMsG8CAwEAAaOBuzCBuDAOBgNVHQ8BAf8EBAMCAQYwDwYD
VR0TAQH/BAUwAwEB/zBCBgNVHSAEOzA5MDcGBWA4AQEBMC4wLAYIKwYBBQUHAgEW
IGh0dHA6Ly9yZXBvc2l0b3J5LmVpZC5iZWxnaXVtLmJlMB0GA1UdDgQWBBQQ8AxW
m2HqVzq2NZdtn925FI7b5jARBglghkgBhvhCAQEEBAMCAAcwHwYDVR0jBBgwFoAU
EPAMVpth6lc6tjWXbZ/duRSO2+YwDQYJKoZIhvcNAQEFBQADggEBAMhtIlGKYfgP
lm7VILKB+MbcoxYA2s1q52sq+llIp0xJN9dzoWoBZV4yveeX09AuPHPTjHuD79ZC
wT+oqV0PN7p20kC9zC0/00RBSZz9Wyn0AiMiW3Ebv1jZKE4tRfTa57VjRUQRDSp/
M382SbTObqkCMa5c/ciJv0J71/Fg8teH9lcuen5qE4Ad3OPQYx49cTGxYNSeCMqr
8JTHSHVUgfMbrXec6LKP24OsjzRr6L/D2fVDw2RV6xq9NoY2uiGMlxoh1OotO6y6
7Kcdq765Sps1LxxcHVGnH1TtEpf/8m6HfUbJdNbv6z195lluBpQE5KJVhzgoaiJe
4r50ErAEQyo=
-----END CERTIFICATE-----
================================================================
Certificate:
    Data:
        Version: 3 (0x2)
        Serial Number: 3098404661496965511 (0x2affbe9fa2f0e987)
    Signature Algorithm: sha1WithRSAEncryption
        Issuer: C=BE, CN=Belgium Root CA2
        Validity
            Not Before: Oct  4 10:00:00 2007 GMT
            Not After : Dec 15 08:00:00 2021 GMT
        Subject: C=BE, CN=Belgium Root CA2
        Subject Public Key Info:
            Public Key Algorithm: rsaEncryption
                Public-Key: (2048 bit)
                Modulus:
                    00:c6:73:42:1e:92:ff:75:0f:8b:bf:74:86:a7:3f:
                    ed:b2:18:2d:2d:97:f9:a9:fb:98:4a:23:df:d5:8d:
                    e0:8c:c6:32:1c:16:2d:07:42:d6:2d:b6:6e:2f:a7:
                    f5:fc:c6:85:82:5d:95:de:b5:22:00:cc:a8:53:40:
                    9f:af:0a:35:a2:7a:c7:e1:ca:f7:60:10:67:0e:a7:
                    50:73:17:53:95:9f:22:9f:0c:5d:6f:b6:41:bc:8c:
                    eb:da:1d:46:bd:a7:94:bf:f3:1a:cb:d4:fb:8d:0e:
                    1e:33:c8:96:d7:ec:8c:53:de:93:1e:34:1e:8a:50:
                    71:26:58:b4:5d:c2:88:89:da:60:d2:89:21:3f:de:
                    d7:01:18:36:6e:e1:2c:70:03:04:65:ef:98:06:2b:
                    5d:1e:62:dc:55:6b:fe:66:64:21:5f:f8:2f:e1:d7:
                    9b:29:af:6f:cd:9f:aa:0c:46:d1:88:c5:9d:a2:95:
                    9f:ac:3f:15:ae:f2:61:df:ef:c3:6b:9a:22:d8:2c:
                    71:fd:58:1d:ec:00:a4:38:20:95:5a:c7:d5:37:63:
                    ba:4f:9b:aa:fe:56:46:2e:63:d9:0b:23:d5:8a:fa:
                    b5:23:f0:89:1b:a1:14:0d:26:da:41:f0:38:8f:30:
                    ed:05:26:79:c1:4b:4e:a1:b8:7e:55:52:3a:69:46:
                    84:75
                Exponent: 65537 (0x10001)
        X509v3 extensions:
            X509v3 Key Usage: critical
                Certificate Sign, CRL Sign
            X509v3 Basic Constraints: critical
                CA:TRUE
            X509v3 Certificate Policies: 
                Policy: 2.16.56.9.1.1
                  CPS: http://repository.eid.belgium.be

            X509v3 Subject Key Identifier: 
                85:8A:EB:F4:C5:BB:BE:0E:59:03:94:DE:D6:80:01:15:E3:10:9C:39
            Netscape Cert Type: 
                SSL CA, S/MIME CA, Object Signing CA
            X509v3 Authority Key Identifier: 
                keyid:85:8A:EB:F4:C5:BB:BE:0E:59:03:94:DE:D6:80:01:15:E3:10:9C:39

    Signature Algorithm: sha1WithRSAEncryption
         51:d8:85:dd:bb:57:6f:cc:a0:6c:b5:a3:20:9c:53:09:f3:4a:
         01:0c:74:bf:2b:b3:9a:9a:ba:18:f2:0b:88:ac:1c:b3:33:af:
         ce:e5:13:01:27:92:84:58:9a:10:b9:f7:cc:14:92:6b:74:16:
         8a:96:e8:51:ef:bf:fa:4a:25:a7:89:b6:63:2b:5d:94:58:d1:
         cf:11:72:b6:1e:b9:39:41:16:4d:29:bc:35:53:0b:da:de:8e:
         0e:cd:a9:95:77:25:ca:94:5a:e9:b2:69:ae:d8:c0:13:be:98:
         fc:96:9c:84:7f:55:13:e6:3c:87:e3:bc:20:a4:a4:36:68:6b:
         4d:60:66:1c:f9:bf:ac:80:94:66:2e:b9:41:8a:d3:65:d3:84:
         80:02:ef:50:1d:5e:46:dc:f7:c9:ba:b5:34:7c:2a:f3:c6:d8:
         5f:5f:54:9d:db:4d:cd:11:e7:fd:14:02:83:66:5e:c8:a6:00:
         12:a0:5f:be:ce:14:fe:bb:1f:a7:61:f7:ab:4a:f1:06:14:9f:
         ca:49:42:c2:a9:bc:ed:85:b1:ab:81:41:e6:0d:c5:42:69:53:
         87:39:9d:4c:1f:00:0e:3e:07:0d:75:57:44:a8:53:b4:36:76:
         64:99:dc:6e:eb:3d:46:6e:14:5d:5e:47:53:8d:78:4d:e0:27:
         bb:8e:85:76
-----BEGIN CERTIFICATE-----
MIIDjjCCAnagAwIBAgIIKv++n6Lw6YcwDQYJKoZIhvcNAQEFBQAwKDELMAkGA1UE
BhMCQkUxGTAXBgNVBAMTEEJlbGdpdW0gUm9vdCBDQTIwHhcNMDcxMDA0MTAwMDAw
WhcNMjExMjE1MDgwMDAwWjAoMQswCQYDVQQGEwJCRTEZMBcGA1UEAxMQQmVsZ2l1
bSBSb290IENBMjCCASIwDQYJKoZIhvcNAQEBBQADggEPADCCAQoCggEBAMZzQh6S
/3UPi790hqc/7bIYLS2X+an7mEoj39WN4IzGMhwWLQdC1i22bi+n9fzGhYJdld61
IgDMqFNAn68KNaJ6x+HK92AQZw6nUHMXU5WfIp8MXW+2QbyM69odRr2nlL/zGsvU
+40OHjPIltfsjFPekx40HopQcSZYtF3CiInaYNKJIT/e1wEYNm7hLHADBGXvmAYr
XR5i3FVr/mZkIV/4L+HXmymvb82fqgxG0YjFnaKVn6w/Fa7yYd/vw2uaItgscf1Y
HewApDgglVrH1Tdjuk+bqv5WRi5j2Qsj1Yr6tSPwiRuhFA0m2kHwOI8w7QUmecFL
TqG4flVSOmlGhHUCAwEAAaOBuzCBuDAOBgNVHQ8BAf8EBAMCAQYwDwYDVR0TAQH/
BAUwAwEB/zBCBgNVHSAEOzA5MDcGBWA4CQEBMC4wLAYIKwYBBQUHAgEWIGh0dHA6
Ly9yZXBvc2l0b3J5LmVpZC5iZWxnaXVtLmJlMB0GA1UdDgQWBBSFiuv0xbu+DlkD
lN7WgAEV4xCcOTARBglghkgBhvhCAQEEBAMCAAcwHwYDVR0jBBgwFoAUhYrr9MW7
vg5ZA5Te1oABFeMQnDkwDQYJKoZIhvcNAQEFBQADggEBAFHYhd27V2/MoGy1oyCc
UwnzSgEMdL8rs5qauhjyC4isHLMzr87lEwEnkoRYmhC598wUkmt0FoqW6FHvv/pK
JaeJtmMrXZRY0c8RcrYeuTlBFk0pvDVTC9rejg7NqZV3JcqUWumyaa7YwBO+mPyW
nIR/VRPmPIfjvCCkpDZoa01gZhz5v6yAlGYuuUGK02XThIAC71AdXkbc98m6tTR8
KvPG2F9fVJ3bTc0R5/0UAoNmXsimABKgX77OFP67H6dh96tK8QYUn8pJQsKpvO2F
sauBQeYNxUJpU4c5nUwfAA4+Bw11V0SoU7Q2dmSZ3G7rPUZuFF1eR1ONeE3gJ7uO
hXY=
-----END CERTIFICATE-----
================================================================
