Certificate:
    Data:
        Version: 1 (0x0)
        Serial Number: 1048593 (0x100011)
    Signature Algorithm: sha1WithRSAEncryption
        Issuer: C=BE, ST=Antwerp, L=Mechelen, O=In Serf we trust, Inc., OU=Test Suite CA, CN=Serf CA/emailAddress=serfca@example.com
        Validity
            Not Before: Apr 18 19:50:11 2013 GMT
            Not After : Apr 18 19:50:11 2014 GMT
        Subject: C=BE, ST=Antwerp, L=Mechelen, O=In Serf we trust, Inc., OU=Test Suite Server, CN=Serf Server/emailAddress=serfserver@example.com
        Subject Public Key Info:
            Public Key Algorithm: rsaEncryption
                Public-Key: (1024 bit)
                Modulus:
                    00:ea:92:6f:ab:ed:ce:e1:c3:a8:2e:3e:03:9e:a0:
                    d8:c0:e4:df:e3:58:1f:bf:eb:18:23:c8:ca:a5:9a:
                    f0:f2:b5:97:ce:df:47:15:9a:0e:96:41:cc:b9:92:
                    66:0c:f0:11:f7:f1:8f:3c:29:48:31:4a:1d:93:db:
                    0a:f0:e9:98:5f:98:ed:07:1c:4e:2e:9f:e3:f3:3f:
                    2c:2f:20:d8:f1:5e:8a:8f:3a:aa:3e:9c:f5:99:07:
                    8c:a6:e9:9c:df:03:59:c1:ff:37:5a:bf:69:e8:41:
                    bd:c0:28:66:c4:4b:0a:ab:dd:93:a1:8f:3e:5e:34:
                    5c:e6:04:6c:1d:8b:a3:88:6b
                Exponent: 65537 (0x10001)
    Signature Algorithm: sha1WithRSAEncryption
         19:2f:4f:a7:a4:ea:b4:31:94:0b:9c:e8:9e:47:59:bd:2c:87:
         7d:70:c3:28:72:1d:79:36:69:9f:fa:d7:58:6c:d6:6b:68:c0:
         be:99:ff:55:09:82:7e:c6:25:bb:35:6c:2c:7f:5c:89:f9:8e:
         d8:cf:45:1e:93:a3:b5:6c:d7:93:9c:d6:53:5a:fb:3d:08:d6:
         21:d0:dc:f2:66:ed:e2:56:2c:bd:63:e1:57:f3:04:1f:e3:96:
         d8:16:5c:44:ac:3c:13:98:cb:21:02:bf:23:67:0c:c1:4a:df:
         b0:c8:d9:16:cf:b4:a7:c0:3a:6d:cb:d8:1e:ce:fe:c9:1c:00:
         68:e4
-----BEGIN CERTIFICATE-----
MIICvzCCAigCAxAAETANBgkqhkiG9w0BAQUFADCBoDELMAkGA1UEBhMCQkUxEDAO
BgNVBAgMB0FudHdlcnAxETAPBgNVBAcMCE1lY2hlbGVuMR8wHQYDVQQKDBZJbiBT
ZXJmIHdlIHRydXN0LCBJbmMuMRYwFAYDVQQLDA1UZXN0IFN1aXRlIENBMRAwDgYD
VQQDDAdTZXJmIENBMSEwHwYJKoZIhvcNAQkBFhJzZXJmY2FAZXhhbXBsZS5jb20w
HhcNMTMwNDE4MTk1MDExWhcNMTQwNDE4MTk1MDExWjCBrDELMAkGA1UEBhMCQkUx
EDAOBgNVBAgMB0FudHdlcnAxETAPBgNVBAcMCE1lY2hlbGVuMR8wHQYDVQQKDBZJ
biBTZXJmIHdlIHRydXN0LCBJbmMuMRowGAYDVQQLDBFUZXN0IFN1aXRlIFNlcnZl
cjEUMBIGA1UEAwwLU2VyZiBTZXJ2ZXIxJTAjBgkqhkiG9w0BCQEWFnNlcmZzZXJ2
ZXJAZXhhbXBsZS5jb20wgZ8wDQYJKoZIhvcNAQEBBQADgY0AMIGJAoGBAOqSb6vt
zuHDqC4+A56g2MDk3+NYH7/rGCPIyqWa8PK1l87fRxWaDpZBzLmSZgzwEffxjzwp
SDFKHZPbCvDpmF+Y7QccTi6f4/M/LC8g2PFeio86qj6c9ZkHjKbpnN8DWcH/N1q/
aehBvcAoZsRLCqvdk6GPPl40XOYEbB2Lo4hrAgMBAAEwDQYJKoZIhvcNAQEFBQAD
gYEAGS9Pp6TqtDGUC5zonkdZvSyHfXDDKHIdeTZpn/rXWGzWa2jAvpn/VQmCfsYl
uzVsLH9cifmO2M9FHpOjtWzXk5zWU1r7PQjWIdDc8mbt4lYsvWPhV/MEH+OW2BZc
RKw8E5jLIQK/I2cMwUrfsMjZFs+0p8A6bcvYHs7+yRwAaOQ=
-----END CERTIFICATE-----
